target datalayout = "e-m:e-p270:32:32-p271:32:32-p272:64:64-i64:64-i128:128-f80:128-n8:16:32:64-S128"
target triple = "x86_64-pc-linux-gnu"

%struct.color_node = type { %struct.color_info, i8, i32, i32, i32 }
%struct.color_info = type { i32, [3 x i32] }

@.str.10 = private unnamed_addr constant [72 x i8] c"%*cnode%d [label=\22%c%d%c%d%c%d%c\22 fillcolor=\22#%06X\22 fontcolor=\22#%06X\22]\0A\00", align 1
@.str.11 = private unnamed_addr constant [4 x i8] c"[  \00", align 1
@.str.12 = private unnamed_addr constant [4 x i8] c"][ \00", align 1
@.str.13 = private unnamed_addr constant [4 x i8] c" ][\00", align 1
@.str.14 = private unnamed_addr constant [4 x i8] c"  ]\00", align 1
@.str.15 = private unnamed_addr constant [21 x i8] c"%*cnode%d -> node%d\0A\00", align 1

; Function Attrs: nounwind uwtable
define internal void @disp_node(ptr noundef %0, ptr noundef %1, i32 noundef %2, i32 noundef %3, i32 noundef %4) #1 {
  %6 = alloca ptr, align 8
  %7 = alloca ptr, align 8
  %8 = alloca i32, align 4
  %9 = alloca i32, align 4
  %10 = alloca i32, align 4
  %11 = alloca ptr, align 8
  %12 = alloca i32, align 4
  %13 = alloca i32, align 4
  store ptr %0, ptr %6, align 8, !tbaa !130
  store ptr %1, ptr %7, align 8, !tbaa !92
  store i32 %2, ptr %8, align 4, !tbaa !36
  store i32 %3, ptr %9, align 4, !tbaa !36
  store i32 %4, ptr %10, align 4, !tbaa !36
  call void @llvm.lifetime.start.p0(i64 8, ptr %11) #11
  %14 = load ptr, ptr %7, align 8, !tbaa !92
  %15 = load i32, ptr %9, align 4, !tbaa !36
  %16 = sext i32 %15 to i64
  %17 = getelementptr inbounds %struct.color_node, ptr %14, i64 %16
  store ptr %17, ptr %11, align 8, !tbaa !92
  call void @llvm.lifetime.start.p0(i64 4, ptr %12) #11
  %18 = load ptr, ptr %11, align 8, !tbaa !92
  %19 = getelementptr inbounds nuw %struct.color_node, ptr %18, i32 0, i32 0
  %20 = getelementptr inbounds nuw %struct.color_info, ptr %19, i32 0, i32 1
  %21 = getelementptr inbounds [3 x i32], ptr %20, i64 0, i64 0
  %22 = load i32, ptr %21, align 4, !tbaa !36
  %23 = icmp sgt i32 %22, 32767
  %24 = select i1 %23, i32 0, i32 16777215
  store i32 %24, ptr %12, align 4, !tbaa !36
  call void @llvm.lifetime.start.p0(i64 4, ptr %13) #11
  %25 = load ptr, ptr %11, align 8, !tbaa !92
  %26 = getelementptr inbounds nuw %struct.color_node, ptr %25, i32 0, i32 2
  %27 = load i32, ptr %26, align 4, !tbaa !96
  store i32 %27, ptr %13, align 4, !tbaa !36
  %28 = load ptr, ptr %6, align 8, !tbaa !130
  %29 = load i32, ptr %10, align 4, !tbaa !36
  %30 = mul nsw i32 %29, 4
  %31 = load ptr, ptr %11, align 8, !tbaa !92
  %32 = getelementptr inbounds nuw %struct.color_node, ptr %31, i32 0, i32 1
  %33 = load i8, ptr %32, align 4, !tbaa !99
  %34 = zext i8 %33 to i32
  %35 = load i32, ptr %13, align 4, !tbaa !36
  %36 = sext i32 %35 to i64
  %37 = getelementptr inbounds [4 x i8], ptr @.str.11, i64 0, i64 %36
  %38 = load i8, ptr %37, align 1, !tbaa !89
  %39 = sext i8 %38 to i32
  %40 = load ptr, ptr %11, align 8, !tbaa !92
  %41 = getelementptr inbounds nuw %struct.color_node, ptr %40, i32 0, i32 0
  %42 = getelementptr inbounds nuw %struct.color_info, ptr %41, i32 0, i32 1
  %43 = getelementptr inbounds [3 x i32], ptr %42, i64 0, i64 0
  %44 = load i32, ptr %43, align 4, !tbaa !36
  %45 = load i32, ptr %13, align 4, !tbaa !36
  %46 = sext i32 %45 to i64
  %47 = getelementptr inbounds [4 x i8], ptr @.str.12, i64 0, i64 %46
  %48 = load i8, ptr %47, align 1, !tbaa !89
  %49 = sext i8 %48 to i32
  %50 = load ptr, ptr %11, align 8, !tbaa !92
  %51 = getelementptr inbounds nuw %struct.color_node, ptr %50, i32 0, i32 0
  %52 = getelementptr inbounds nuw %struct.color_info, ptr %51, i32 0, i32 1
  %53 = getelementptr inbounds [3 x i32], ptr %52, i64 0, i64 1
  %54 = load i32, ptr %53, align 4, !tbaa !36
  %55 = load i32, ptr %13, align 4, !tbaa !36
  %56 = sext i32 %55 to i64
  %57 = getelementptr inbounds [4 x i8], ptr @.str.13, i64 0, i64 %56
  %58 = load i8, ptr %57, align 1, !tbaa !89
  %59 = sext i8 %58 to i32
  %60 = load ptr, ptr %11, align 8, !tbaa !92
  %61 = getelementptr inbounds nuw %struct.color_node, ptr %60, i32 0, i32 0
  %62 = getelementptr inbounds nuw %struct.color_info, ptr %61, i32 0, i32 1
  %63 = getelementptr inbounds [3 x i32], ptr %62, i64 0, i64 2
  %64 = load i32, ptr %63, align 4, !tbaa !36
  %65 = load i32, ptr %13, align 4, !tbaa !36
  %66 = sext i32 %65 to i64
  %67 = getelementptr inbounds [4 x i8], ptr @.str.14, i64 0, i64 %66
  %68 = load i8, ptr %67, align 1, !tbaa !89
  %69 = sext i8 %68 to i32
  %70 = load ptr, ptr %11, align 8, !tbaa !92
  %71 = getelementptr inbounds nuw %struct.color_node, ptr %70, i32 0, i32 0
  %72 = getelementptr inbounds nuw %struct.color_info, ptr %71, i32 0, i32 0
  %73 = load i32, ptr %72, align 4, !tbaa !132
  %74 = and i32 %73, 16777215
  %75 = load i32, ptr %12, align 4, !tbaa !36
  call void (ptr, ptr, ...) @av_bprintf(ptr noundef %28, ptr noundef @.str.10, i32 noundef %30, i32 noundef 32, i32 noundef %34, i32 noundef %39, i32 noundef %44, i32 noundef %49, i32 noundef %54, i32 noundef %59, i32 noundef %64, i32 noundef %69, i32 noundef %74, i32 noundef %75)
  %76 = load i32, ptr %8, align 4, !tbaa !36
  %77 = icmp ne i32 %76, -1
  br i1 %77, label %78, label %93

78:                                               ; preds = %5
  %79 = load ptr, ptr %6, align 8, !tbaa !130
  %80 = load i32, ptr %10, align 4, !tbaa !36
  %81 = mul nsw i32 %80, 4
  %82 = load ptr, ptr %7, align 8, !tbaa !92
  %83 = load i32, ptr %8, align 4, !tbaa !36
  %84 = sext i32 %83 to i64
  %85 = getelementptr inbounds %struct.color_node, ptr %82, i64 %84
  %86 = getelementptr inbounds nuw %struct.color_node, ptr %85, i32 0, i32 1
  %87 = load i8, ptr %86, align 4, !tbaa !99
  %88 = zext i8 %87 to i32
  %89 = load ptr, ptr %11, align 8, !tbaa !92
  %90 = getelementptr inbounds nuw %struct.color_node, ptr %89, i32 0, i32 1
  %91 = load i8, ptr %90, align 4, !tbaa !99
  %92 = zext i8 %91 to i32
  call void (ptr, ptr, ...) @av_bprintf(ptr noundef %79, ptr noundef @.str.15, i32 noundef %81, i32 noundef 32, i32 noundef %88, i32 noundef %92)
  br label %93

93:                                               ; preds = %78, %5
  %94 = load ptr, ptr %11, align 8, !tbaa !92
  %95 = getelementptr inbounds nuw %struct.color_node, ptr %94, i32 0, i32 3
  %96 = load i32, ptr %95, align 4, !tbaa !102
  %97 = icmp ne i32 %96, -1
  br i1 %97, label %98, label %107

98:                                               ; preds = %93
  %99 = load ptr, ptr %6, align 8, !tbaa !130
  %100 = load ptr, ptr %7, align 8, !tbaa !92
  %101 = load i32, ptr %9, align 4, !tbaa !36
  %102 = load ptr, ptr %11, align 8, !tbaa !92
  %103 = getelementptr inbounds nuw %struct.color_node, ptr %102, i32 0, i32 3
  %104 = load i32, ptr %103, align 4, !tbaa !102
  %105 = load i32, ptr %10, align 4, !tbaa !36
  %106 = add nsw i32 %105, 1
  call void @disp_node(ptr noundef %99, ptr noundef %100, i32 noundef %101, i32 noundef %104, i32 noundef %106)
  br label %107

107:                                              ; preds = %98, %93
  %108 = load ptr, ptr %11, align 8, !tbaa !92
  %109 = getelementptr inbounds nuw %struct.color_node, ptr %108, i32 0, i32 4
  %110 = load i32, ptr %109, align 4, !tbaa !103
  %111 = icmp ne i32 %110, -1
  br i1 %111, label %112, label %121

112:                                              ; preds = %107
  %113 = load ptr, ptr %6, align 8, !tbaa !130
  %114 = load ptr, ptr %7, align 8, !tbaa !92
  %115 = load i32, ptr %9, align 4, !tbaa !36
  %116 = load ptr, ptr %11, align 8, !tbaa !92
  %117 = getelementptr inbounds nuw %struct.color_node, ptr %116, i32 0, i32 4
  %118 = load i32, ptr %117, align 4, !tbaa !103
  %119 = load i32, ptr %10, align 4, !tbaa !36
  %120 = add nsw i32 %119, 1
  call void @disp_node(ptr noundef %113, ptr noundef %114, i32 noundef %115, i32 noundef %118, i32 noundef %120)
  br label %121

121:                                              ; preds = %112, %107
  call void @llvm.lifetime.end.p0(i64 4, ptr %13) #11
  call void @llvm.lifetime.end.p0(i64 4, ptr %12) #11
  call void @llvm.lifetime.end.p0(i64 8, ptr %11) #11
  ret void
}