; Function Attrs: nounwind uwtable
define internal fastcc void @disp_node(ptr noundef nonnull %0, ptr noundef readonly captures(none) %1, i32 noundef %2, i32 noundef range(i32 0, -1) %3, i32 noundef %4) unnamed_addr #1 {
  br label %tailrecurse

tailrecurse:                                      ; preds = %._crit_edge, %5
  %.tr38 = phi i32 [ %2, %5 ], [ %.tr39, %._crit_edge ]
  %.tr39 = phi i32 [ %3, %5 ], [ %49, %._crit_edge ]
  %.tr40 = phi i32 [ %4, %5 ], [ %.pre, %._crit_edge ]
  %6 = sext i32 %.tr39 to i64
  %7 = getelementptr inbounds %struct.color_node, ptr %1, i64 %6
  %8 = getelementptr inbounds nuw i8, ptr %7, i64 4
  %9 = load i32, ptr %8, align 4, !tbaa !33
  %10 = icmp sgt i32 %9, 32767
  %11 = select i1 %10, i32 0, i32 16777215
  %12 = getelementptr inbounds nuw i8, ptr %7, i64 20
  %13 = load i32, ptr %12, align 4, !tbaa !89
  %14 = shl nsw i32 %.tr40, 2
  %15 = getelementptr inbounds nuw i8, ptr %7, i64 16
  %16 = load i8, ptr %15, align 4, !tbaa !92
  %17 = zext i8 %16 to i32
  %18 = sext i32 %13 to i64
  %19 = getelementptr inbounds [4 x i8], ptr @.str.11, i64 0, i64 %18
  %20 = load i8, ptr %19, align 1, !tbaa !76
  %21 = sext i8 %20 to i32
  %22 = getelementptr inbounds [4 x i8], ptr @.str.12, i64 0, i64 %18
  %23 = load i8, ptr %22, align 1, !tbaa !76
  %24 = sext i8 %23 to i32
  %25 = getelementptr inbounds nuw i8, ptr %7, i64 8
  %26 = load i32, ptr %25, align 4, !tbaa !33
  %27 = getelementptr inbounds [4 x i8], ptr @.str.13, i64 0, i64 %18
  %28 = load i8, ptr %27, align 1, !tbaa !76
  %29 = sext i8 %28 to i32
  %30 = getelementptr inbounds nuw i8, ptr %7, i64 12
  %31 = load i32, ptr %30, align 4, !tbaa !33
  %32 = getelementptr inbounds [4 x i8], ptr @.str.14, i64 0, i64 %18
  %33 = load i8, ptr %32, align 1, !tbaa !76
  %34 = sext i8 %33 to i32
  %35 = load i32, ptr %7, align 4, !tbaa !109
  %36 = and i32 %35, 16777215
  tail call void (ptr, ptr, ...) @av_bprintf(ptr noundef nonnull %0, ptr noundef nonnull @.str.10, i32 noundef %14, i32 noundef 32, i32 noundef %17, i32 noundef %21, i32 noundef %9, i32 noundef %24, i32 noundef %26, i32 noundef %29, i32 noundef %31, i32 noundef %34, i32 noundef %36, i32 noundef %11) #13
  %.not = icmp eq i32 %.tr38, -1
  br i1 %.not, label %44, label %37

37:                                               ; preds = %tailrecurse
  %38 = sext i32 %.tr38 to i64
  %39 = getelementptr inbounds %struct.color_node, ptr %1, i64 %38, i32 1
  %40 = load i8, ptr %39, align 4, !tbaa !92
  %41 = zext i8 %40 to i32
  %42 = load i8, ptr %15, align 4, !tbaa !92
  %43 = zext i8 %42 to i32
  tail call void (ptr, ptr, ...) @av_bprintf(ptr noundef nonnull %0, ptr noundef nonnull @.str.15, i32 noundef %14, i32 noundef 32, i32 noundef %41, i32 noundef %43) #13
  br label %44

44:                                               ; preds = %37, %tailrecurse
  %45 = getelementptr inbounds nuw i8, ptr %7, i64 24
  %46 = load i32, ptr %45, align 4, !tbaa !94
  %.not35 = icmp eq i32 %46, -1
  %.pre = add nsw i32 %.tr40, 1
  br i1 %.not35, label %._crit_edge, label %47

47:                                               ; preds = %44
  tail call fastcc void @disp_node(ptr noundef %0, ptr noundef nonnull %1, i32 noundef %.tr39, i32 noundef %46, i32 noundef %.pre)
  br label %._crit_edge

._crit_edge:                                      ; preds = %44, %47
  %48 = getelementptr inbounds nuw i8, ptr %7, i64 28
  %49 = load i32, ptr %48, align 4, !tbaa !95
  %.not36 = icmp eq i32 %49, -1
  br i1 %.not36, label %50, label %tailrecurse

50:                                               ; preds = %._crit_edge
  ret void
}